target datalayout = "e-m:e-p270:32:32-p271:32:32-p272:64:64-i64:64-i128:128-f80:128-n8:16:32:64-S128"
target triple = "x86_64-pc-linux-gnu"

%struct.If_Cut_t_ = type <{ float, float, float, float, i32, i32, i32, i64, [0 x i32] }>
%struct.If_Man_t_ = type { ptr, ptr, ptr, ptr, ptr, ptr, ptr, ptr, [5 x i32], i32, float, float, float, float, i32, float, i32, i32, [4 x ptr], ptr, i32, i32, i32, ptr, [3 x [32 x i32]], i32, i32, i32, ptr, ptr, ptr, ptr, ptr, ptr, ptr, i32, i32, i32, [16 x i32], i32, i32, i32, i32, ptr, ptr, ptr, ptr, ptr, i32, i32, [32 x i32], [32 x i32], i32, i32, i32, i32, ptr, [16 x ptr], [16 x ptr], [16 x ptr], [16 x ptr], [16 x ptr], [16 x ptr], [16 x ptr], ptr, ptr, ptr, ptr, [32 x i8], i32, i32, i32, [6 x i64], [2 x i32], [2 x i32], ptr, [15 x i32], ptr, ptr, ptr, [16 x i32], ptr, ptr, ptr, ptr, [2 x i32], [2 x i32], [2 x ptr], ptr }
%struct.If_Obj_t_ = type { i32, i32, i32, i32, i32, i32, ptr, ptr, ptr, float, float, float, %union.anon, ptr, %struct.If_Cut_t_ }
%union.anon = type { ptr }
%struct.Vec_Int_t_ = type { i32, i32, ptr }
%struct.Vec_Str_t_ = type { i32, i32, ptr }

; Function Attrs: inlinehint nounwind uwtable
define internal void @Vec_IntGrow(ptr noundef %0, i32 noundef %1) #2 {
  %3 = alloca ptr, align 8
  %4 = alloca i32, align 4
  store ptr %0, ptr %3, align 8, !tbaa !139
  store i32 %1, ptr %4, align 4, !tbaa !8
  %5 = load ptr, ptr %3, align 8, !tbaa !139
  %6 = getelementptr inbounds nuw %struct.Vec_Int_t_, ptr %5, i32 0, i32 0
  %7 = load i32, ptr %6, align 8, !tbaa !143
  %8 = load i32, ptr %4, align 4, !tbaa !8
  %9 = icmp sge i32 %7, %8
  br i1 %9, label %10, label %11

10:                                               ; preds = %2
  br label %36

11:                                               ; preds = %2
  %12 = load ptr, ptr %3, align 8, !tbaa !139
  %13 = getelementptr inbounds nuw %struct.Vec_Int_t_, ptr %12, i32 0, i32 2
  %14 = load ptr, ptr %13, align 8, !tbaa !114
  %15 = icmp ne ptr %14, null
  br i1 %15, label %16, label %24

16:                                               ; preds = %11
  %17 = load ptr, ptr %3, align 8, !tbaa !139
  %18 = getelementptr inbounds nuw %struct.Vec_Int_t_, ptr %17, i32 0, i32 2
  %19 = load ptr, ptr %18, align 8, !tbaa !114
  %20 = load i32, ptr %4, align 4, !tbaa !8
  %21 = sext i32 %20 to i64
  %22 = mul i64 4, %21
  %23 = call ptr @realloc(ptr noundef %19, i64 noundef %22) #12
  br label %29

24:                                               ; preds = %11
  %25 = load i32, ptr %4, align 4, !tbaa !8
  %26 = sext i32 %25 to i64
  %27 = mul i64 4, %26
  %28 = call noalias ptr @malloc(i64 noundef %27) #11
  br label %29

29:                                               ; preds = %24, %16
  %30 = phi ptr [ %23, %16 ], [ %28, %24 ]
  %31 = load ptr, ptr %3, align 8, !tbaa !139
  %32 = getelementptr inbounds nuw %struct.Vec_Int_t_, ptr %31, i32 0, i32 2
  store ptr %30, ptr %32, align 8, !tbaa !114
  %33 = load i32, ptr %4, align 4, !tbaa !8
  %34 = load ptr, ptr %3, align 8, !tbaa !139
  %35 = getelementptr inbounds nuw %struct.Vec_Int_t_, ptr %34, i32 0, i32 0
  store i32 %33, ptr %35, align 8, !tbaa !143
  br label %36

36:                                               ; preds = %29, %10
  ret void
}

; Function Attrs: inlinehint nounwind uwtable
define internal void @Vec_IntPush(ptr noundef %0, i32 noundef %1) #2 {
  %3 = alloca ptr, align 8
  %4 = alloca i32, align 4
  store ptr %0, ptr %3, align 8, !tbaa !139
  store i32 %1, ptr %4, align 4, !tbaa !8
  %5 = load ptr, ptr %3, align 8, !tbaa !139
  %6 = getelementptr inbounds nuw %struct.Vec_Int_t_, ptr %5, i32 0, i32 1
  %7 = load i32, ptr %6, align 4, !tbaa !140
  %8 = load ptr, ptr %3, align 8, !tbaa !139
  %9 = getelementptr inbounds nuw %struct.Vec_Int_t_, ptr %8, i32 0, i32 0
  %10 = load i32, ptr %9, align 8, !tbaa !143
  %11 = icmp eq i32 %7, %10
  br i1 %11, label %12, label %26

12:                                               ; preds = %2
  %13 = load ptr, ptr %3, align 8, !tbaa !139
  %14 = getelementptr inbounds nuw %struct.Vec_Int_t_, ptr %13, i32 0, i32 0
  %15 = load i32, ptr %14, align 8, !tbaa !143
  %16 = icmp slt i32 %15, 16
  br i1 %16, label %17, label %19

17:                                               ; preds = %12
  %18 = load ptr, ptr %3, align 8, !tbaa !139
  call void @Vec_IntGrow(ptr noundef %18, i32 noundef 16)
  br label %25

19:                                               ; preds = %12
  %20 = load ptr, ptr %3, align 8, !tbaa !139
  %21 = load ptr, ptr %3, align 8, !tbaa !139
  %22 = getelementptr inbounds nuw %struct.Vec_Int_t_, ptr %21, i32 0, i32 0
  %23 = load i32, ptr %22, align 8, !tbaa !143
  %24 = mul nsw i32 2, %23
  call void @Vec_IntGrow(ptr noundef %20, i32 noundef %24)
  br label %25

25:                                               ; preds = %19, %17
  br label %26

26:                                               ; preds = %25, %2
  %27 = load i32, ptr %4, align 4, !tbaa !8
  %28 = load ptr, ptr %3, align 8, !tbaa !139
  %29 = getelementptr inbounds nuw %struct.Vec_Int_t_, ptr %28, i32 0, i32 2
  %30 = load ptr, ptr %29, align 8, !tbaa !114
  %31 = load ptr, ptr %3, align 8, !tbaa !139
  %32 = getelementptr inbounds nuw %struct.Vec_Int_t_, ptr %31, i32 0, i32 1
  %33 = load i32, ptr %32, align 4, !tbaa !140
  %34 = add nsw i32 %33, 1
  store i32 %34, ptr %32, align 4, !tbaa !140
  %35 = sext i32 %33 to i64
  %36 = getelementptr inbounds i32, ptr %30, i64 %35
  store i32 %27, ptr %36, align 4, !tbaa !8
  ret void
}

; Function Attrs: inlinehint nounwind uwtable
define internal ptr @Vec_StrEntryP(ptr noundef %0, i32 noundef %1) #2 {
  %3 = alloca ptr, align 8
  %4 = alloca i32, align 4
  store ptr %0, ptr %3, align 8, !tbaa !147
  store i32 %1, ptr %4, align 4, !tbaa !8
  %5 = load ptr, ptr %3, align 8, !tbaa !147
  %6 = getelementptr inbounds nuw %struct.Vec_Str_t_, ptr %5, i32 0, i32 2
  %7 = load ptr, ptr %6, align 8, !tbaa !148
  %8 = load i32, ptr %4, align 4, !tbaa !8
  %9 = sext i32 %8 to i64
  %10 = getelementptr inbounds i8, ptr %7, i64 %9
  ret ptr %10
}

; Function Attrs: nounwind uwtable
define i32 @If_CutFilter2_rec(ptr noundef %0, ptr noundef %1, i32 noundef %2) #0 {
  %4 = alloca i32, align 4
  %5 = alloca ptr, align 8
  %6 = alloca ptr, align 8
  %7 = alloca i32, align 4
  %8 = alloca ptr, align 8
  %9 = alloca i32, align 4
  store ptr %0, ptr %5, align 8, !tbaa !35
  store ptr %1, ptr %6, align 8, !tbaa !99
  store i32 %2, ptr %7, align 4, !tbaa !8
  call void @llvm.lifetime.start.p0(i64 8, ptr %8) #9
  %10 = load ptr, ptr %5, align 8, !tbaa !35
  %11 = getelementptr inbounds nuw %struct.If_Man_t_, ptr %10, i32 0, i32 81
  %12 = load ptr, ptr %11, align 8, !tbaa !144
  %13 = load ptr, ptr %6, align 8, !tbaa !99
  %14 = getelementptr inbounds nuw %struct.If_Obj_t_, ptr %13, i32 0, i32 1
  %15 = load i32, ptr %14, align 4, !tbaa !100
  %16 = call ptr @Vec_StrEntryP(ptr noundef %12, i32 noundef %15)
  store ptr %16, ptr %8, align 8, !tbaa !95
  %17 = load ptr, ptr %8, align 8, !tbaa !95
  %18 = load i8, ptr %17, align 1, !tbaa !145
  %19 = icmp ne i8 %18, 0
  br i1 %19, label %20, label %24

20:                                               ; preds = %3
  %21 = load ptr, ptr %8, align 8, !tbaa !95
  %22 = load i8, ptr %21, align 1, !tbaa !145
  %23 = sext i8 %22 to i32
  store i32 %23, ptr %4, align 4
  store i32 1, ptr %9, align 4
  br label %60

24:                                               ; preds = %3
  %25 = load ptr, ptr %5, align 8, !tbaa !35
  %26 = getelementptr inbounds nuw %struct.If_Man_t_, ptr %25, i32 0, i32 82
  %27 = load ptr, ptr %26, align 8, !tbaa !146
  %28 = load ptr, ptr %6, align 8, !tbaa !99
  %29 = getelementptr inbounds nuw %struct.If_Obj_t_, ptr %28, i32 0, i32 1
  %30 = load i32, ptr %29, align 4, !tbaa !100
  call void @Vec_IntPush(ptr noundef %27, i32 noundef %30)
  %31 = load ptr, ptr %6, align 8, !tbaa !99
  %32 = load i32, ptr %31, align 8
  %33 = lshr i32 %32, 13
  %34 = load i32, ptr %7, align 4, !tbaa !8
  %35 = icmp sle i32 %33, %34
  br i1 %35, label %36, label %38

36:                                               ; preds = %24
  %37 = load ptr, ptr %8, align 8, !tbaa !95
  store i8 1, ptr %37, align 1, !tbaa !145
  store i32 1, ptr %4, align 4
  store i32 1, ptr %9, align 4
  br label %60

38:                                               ; preds = %24
  %39 = load ptr, ptr %5, align 8, !tbaa !35
  %40 = load ptr, ptr %6, align 8, !tbaa !99
  %41 = getelementptr inbounds nuw %struct.If_Obj_t_, ptr %40, i32 0, i32 6
  %42 = load ptr, ptr %41, align 8, !tbaa !129
  %43 = load i32, ptr %7, align 4, !tbaa !8
  %44 = call i32 @If_CutFilter2_rec(ptr noundef %39, ptr noundef %42, i32 noundef %43)
  %45 = icmp eq i32 %44, 1
  br i1 %45, label %46, label %48

46:                                               ; preds = %38
  %47 = load ptr, ptr %8, align 8, !tbaa !95
  store i8 1, ptr %47, align 1, !tbaa !145
  store i32 1, ptr %4, align 4
  store i32 1, ptr %9, align 4
  br label %60

48:                                               ; preds = %38
  %49 = load ptr, ptr %5, align 8, !tbaa !35
  %50 = load ptr, ptr %6, align 8, !tbaa !99
  %51 = getelementptr inbounds nuw %struct.If_Obj_t_, ptr %50, i32 0, i32 7
  %52 = load ptr, ptr %51, align 8, !tbaa !130
  %53 = load i32, ptr %7, align 4, !tbaa !8
  %54 = call i32 @If_CutFilter2_rec(ptr noundef %49, ptr noundef %52, i32 noundef %53)
  %55 = icmp eq i32 %54, 1
  br i1 %55, label %56, label %58

56:                                               ; preds = %48
  %57 = load ptr, ptr %8, align 8, !tbaa !95
  store i8 1, ptr %57, align 1, !tbaa !145
  store i32 1, ptr %4, align 4
  store i32 1, ptr %9, align 4
  br label %60

58:                                               ; preds = %48
  %59 = load ptr, ptr %8, align 8, !tbaa !95
  store i8 2, ptr %59, align 1, !tbaa !145
  store i32 2, ptr %4, align 4
  store i32 1, ptr %9, align 4
  br label %60

60:                                               ; preds = %58, %56, %46, %36, %20
  call void @llvm.lifetime.end.p0(i64 8, ptr %8) #9
  %61 = load i32, ptr %4, align 4
  ret i32 %61
}