; Function Attrs: nounwind uwtable
define range(i32 -128, 128) i32 @If_CutFilter2_rec(ptr noundef %0, ptr noundef readonly captures(none) %1, i32 noundef %2) local_unnamed_addr #0 {
  %4 = getelementptr inbounds nuw i8, ptr %0, i64 2264
  %5 = load ptr, ptr %4, align 8, !tbaa !136
  %6 = getelementptr inbounds nuw i8, ptr %1, i64 4
  %7 = load i32, ptr %6, align 4, !tbaa !96
  %8 = getelementptr i8, ptr %5, i64 8
  %.val = load ptr, ptr %8, align 8, !tbaa !137
  %9 = sext i32 %7 to i64
  %10 = getelementptr inbounds i8, ptr %.val, i64 %9
  %11 = load i8, ptr %10, align 1, !tbaa !139
  %.not = icmp eq i8 %11, 0
  br i1 %.not, label %14, label %12

12:                                               ; preds = %3
  %13 = sext i8 %11 to i32
  br label %64

14:                                               ; preds = %3
  %15 = getelementptr inbounds nuw i8, ptr %0, i64 2272
  %16 = load ptr, ptr %15, align 8, !tbaa !140
  %17 = getelementptr inbounds nuw i8, ptr %16, i64 4
  %18 = load i32, ptr %17, align 4, !tbaa !132
  %19 = load i32, ptr %16, align 8, !tbaa !134
  %20 = icmp eq i32 %18, %19
  br i1 %20, label %21, label %.Vec_IntGrow.exit10_crit_edge.i

.Vec_IntGrow.exit10_crit_edge.i:                  ; preds = %14
  %.phi.trans.insert.i = getelementptr inbounds nuw i8, ptr %16, i64 8
  %.pre.i = load ptr, ptr %.phi.trans.insert.i, align 8, !tbaa !109
  br label %Vec_IntPush.exit

21:                                               ; preds = %14
  %22 = icmp slt i32 %18, 16
  br i1 %22, label %23, label %31

23:                                               ; preds = %21
  %24 = getelementptr inbounds nuw i8, ptr %16, i64 8
  %25 = load ptr, ptr %24, align 8, !tbaa !109
  %.not9.i.i = icmp eq ptr %25, null
  br i1 %.not9.i.i, label %28, label %26

26:                                               ; preds = %23
  %27 = tail call dereferenceable_or_null(64) ptr @realloc(ptr noundef nonnull %25, i64 noundef 64) #21
  br label %Vec_IntGrow.exit.i

28:                                               ; preds = %23
  %29 = tail call noalias dereferenceable_or_null(64) ptr @malloc(i64 noundef 64) #22
  br label %Vec_IntGrow.exit.i

Vec_IntGrow.exit.i:                               ; preds = %28, %26
  %30 = phi ptr [ %27, %26 ], [ %29, %28 ]
  store ptr %30, ptr %24, align 8, !tbaa !109
  store i32 16, ptr %16, align 8, !tbaa !134
  br label %Vec_IntPush.exit

31:                                               ; preds = %21
  %32 = shl nuw nsw i32 %18, 1
  %33 = getelementptr inbounds nuw i8, ptr %16, i64 8
  %34 = load ptr, ptr %33, align 8, !tbaa !109
  %.not9.i9.i = icmp eq ptr %34, null
  %35 = zext nneg i32 %32 to i64
  %36 = shl nuw nsw i64 %35, 2
  br i1 %.not9.i9.i, label %39, label %37

37:                                               ; preds = %31
  %38 = tail call ptr @realloc(ptr noundef nonnull %34, i64 noundef %36) #21
  br label %41

39:                                               ; preds = %31
  %40 = tail call noalias ptr @malloc(i64 noundef %36) #22
  br label %41

41:                                               ; preds = %39, %37
  %42 = phi ptr [ %38, %37 ], [ %40, %39 ]
  store ptr %42, ptr %33, align 8, !tbaa !109
  store i32 %32, ptr %16, align 8, !tbaa !134
  br label %Vec_IntPush.exit

Vec_IntPush.exit:                                 ; preds = %.Vec_IntGrow.exit10_crit_edge.i, %Vec_IntGrow.exit.i, %41
  %43 = phi ptr [ %.pre.i, %.Vec_IntGrow.exit10_crit_edge.i ], [ %42, %41 ], [ %30, %Vec_IntGrow.exit.i ]
  %44 = load i32, ptr %17, align 4, !tbaa !132
  %45 = add nsw i32 %44, 1
  store i32 %45, ptr %17, align 4, !tbaa !132
  %46 = sext i32 %44 to i64
  %47 = getelementptr inbounds i32, ptr %43, i64 %46
  store i32 %7, ptr %47, align 4, !tbaa !14
  %48 = load i32, ptr %1, align 8
  %49 = lshr i32 %48, 13
  %.not20 = icmp sgt i32 %49, %2
  br i1 %.not20, label %51, label %50

50:                                               ; preds = %Vec_IntPush.exit
  store i8 1, ptr %10, align 1, !tbaa !139
  br label %64

51:                                               ; preds = %Vec_IntPush.exit
  %52 = getelementptr inbounds nuw i8, ptr %1, i64 24
  %53 = load ptr, ptr %52, align 8, !tbaa !122
  %54 = tail call i32 @If_CutFilter2_rec(ptr noundef nonnull %0, ptr noundef %53, i32 noundef %2)
  %55 = icmp eq i32 %54, 1
  br i1 %55, label %56, label %57

56:                                               ; preds = %51
  store i8 1, ptr %10, align 1, !tbaa !139
  br label %64

57:                                               ; preds = %51
  %58 = getelementptr inbounds nuw i8, ptr %1, i64 32
  %59 = load ptr, ptr %58, align 8, !tbaa !123
  %60 = tail call i32 @If_CutFilter2_rec(ptr noundef nonnull %0, ptr noundef %59, i32 noundef %2)
  %61 = icmp eq i32 %60, 1
  br i1 %61, label %62, label %63

62:                                               ; preds = %57
  store i8 1, ptr %10, align 1, !tbaa !139
  br label %64

63:                                               ; preds = %57
  store i8 2, ptr %10, align 1, !tbaa !139
  br label %64

64:                                               ; preds = %63, %62, %56, %50, %12
  %.0 = phi i32 [ %13, %12 ], [ 1, %50 ], [ 1, %56 ], [ 1, %62 ], [ 2, %63 ]
  ret i32 %.0
}